; Function Attrs: mustprogress uwtable
define internal void @_ZL18handshaker_destroyP14tsi_handshaker(ptr noundef %0) #3 personality ptr @__gxx_personality_v0 {
  %2 = icmp eq ptr %0, null
  br i1 %2, label %36, label %3

3:                                                ; preds = %1
  %4 = getelementptr inbounds nuw i8, ptr %0, i64 112
  %5 = load ptr, ptr %4, align 8, !tbaa !82
  tail call void @_Z30alts_handshaker_client_destroyP22alts_handshaker_client(ptr noundef %5)
  %6 = getelementptr inbounds nuw i8, ptr %0, i64 16
  %7 = load ptr, ptr %6, align 8, !tbaa !77
  %8 = icmp ugt ptr %7, inttoptr (i64 1 to ptr)
  br i1 %8, label %9, label %_ZN9grpc_core11CSliceUnrefERK10grpc_sliceNS_13DebugLocationE.exit

9:                                                ; preds = %3
  %10 = atomicrmw sub ptr %7, i64 1 acq_rel, align 8
  %11 = icmp eq i64 %10, 1
  br i1 %11, label %12, label %_ZN9grpc_core11CSliceUnrefERK10grpc_sliceNS_13DebugLocationE.exit

12:                                               ; preds = %9
  %13 = getelementptr inbounds nuw i8, ptr %7, i64 8
  %14 = load ptr, ptr %13, align 8, !tbaa !104
  tail call void %14(ptr noundef nonnull align 8 dereferenceable(16) %7)
  br label %_ZN9grpc_core11CSliceUnrefERK10grpc_sliceNS_13DebugLocationE.exit

_ZN9grpc_core11CSliceUnrefERK10grpc_sliceNS_13DebugLocationE.exit: ; preds = %3, %9, %12
  %15 = getelementptr inbounds nuw i8, ptr %0, i64 72
  %16 = load ptr, ptr %15, align 8, !tbaa !72
  tail call void @grpc_alts_credentials_options_destroy(ptr noundef %16)
  %17 = getelementptr inbounds nuw i8, ptr %0, i64 88
  %18 = load ptr, ptr %17, align 8, !tbaa !108
  %.not = icmp eq ptr %18, null
  br i1 %.not, label %_Z29grpc_channel_destroy_internalP12grpc_channel.exit, label %19

19:                                               ; preds = %_ZN9grpc_core11CSliceUnrefERK10grpc_sliceNS_13DebugLocationE.exit
  %20 = getelementptr inbounds nuw i8, ptr %18, i64 8
  %21 = atomicrmw add ptr %20, i64 -4294967295 acq_rel, align 8
  %.mask.i.i = and i64 %21, -4294967296
  %22 = icmp eq i64 %.mask.i.i, 4294967296
  br i1 %22, label %23, label %27, !prof !27

23:                                               ; preds = %19
  %24 = load ptr, ptr %18, align 8, !tbaa !83
  %25 = getelementptr inbounds nuw i8, ptr %24, i64 16
  %26 = load ptr, ptr %25, align 8
  tail call void %26(ptr noundef nonnull align 8 dereferenceable(16) %18)
  br label %27

27:                                               ; preds = %23, %19
  %28 = atomicrmw sub ptr %20, i64 1 acq_rel, align 8
  %29 = icmp eq i64 %28, 1
  br i1 %29, label %30, label %_Z29grpc_channel_destroy_internalP12grpc_channel.exit, !prof !27

30:                                               ; preds = %27
  %31 = load ptr, ptr %18, align 8, !tbaa !83
  %32 = getelementptr inbounds nuw i8, ptr %31, i64 8
  %33 = load ptr, ptr %32, align 8
  tail call void %33(ptr noundef nonnull align 8 dereferenceable(16) %18) #29
  br label %_Z29grpc_channel_destroy_internalP12grpc_channel.exit

_Z29grpc_channel_destroy_internalP12grpc_channel.exit: ; preds = %30, %27, %_ZN9grpc_core11CSliceUnrefERK10grpc_sliceNS_13DebugLocationE.exit
  %34 = getelementptr inbounds nuw i8, ptr %0, i64 56
  %35 = load ptr, ptr %34, align 8, !tbaa !70
  tail call void @gpr_free(ptr noundef %35)
  tail call void @_ZdlPvm(ptr noundef nonnull %0, i64 noundef 136) #35
  br label %36

36:                                               ; preds = %1, %_Z29grpc_channel_destroy_internalP12grpc_channel.exit
  ret void
}